target datalayout = "e-m:e-p270:32:32-p271:32:32-p272:64:64-i64:64-i128:128-f80:128-n8:16:32:64-S128"
target triple = "x86_64-pc-linux-gnu"

%"class.std::__cxx11::basic_string" = type { %"struct.std::__cxx11::basic_string<char>::_Alloc_hider", i64, %union.anon }
%"struct.std::__cxx11::basic_string<char>::_Alloc_hider" = type { ptr }
%union.anon = type { i64, [8 x i8] }
%class.colvarproxy = type { %class.colvarproxy_system, %class.colvarproxy_atoms.base, %class.colvarproxy_atom_groups, %class.colvarproxy_volmaps, %class.colvarproxy_smp, %class.colvarproxy_replicas, %class.colvarproxy_script.base, %class.colvarproxy_tcl, %class.colvarproxy_io, ptr, i8, %"class.std::__cxx11::basic_string", i8, i8, i8, i32, i64, %"class.std::__cxx11::basic_string", ptr }
%class.colvarproxy_system = type { ptr, %"class.std::__cxx11::basic_string", double, double, i8, double, double, double, double, double, i8, i32, %"class.colvarmodule::rvector", %"class.colvarmodule::rvector", %"class.colvarmodule::rvector", %"class.colvarmodule::rvector", %"class.colvarmodule::rvector", %"class.colvarmodule::rvector" }
%"class.colvarmodule::rvector" = type { double, double, double }
%class.colvarproxy_atoms.base = type <{ ptr, %"class.std::vector", %"class.std::vector.3", %"class.std::vector.8", %"class.std::vector.8", %"class.std::vector.13", %"class.std::vector.13", %"class.std::vector.13", double, double, i32, i8, i8, i8 }>
%"class.std::vector" = type { %"struct.std::_Vector_base" }
%"struct.std::_Vector_base" = type { %"struct.std::_Vector_base<int, std::allocator<int>>::_Vector_impl" }
%"struct.std::_Vector_base<int, std::allocator<int>>::_Vector_impl" = type { %"struct.std::_Vector_base<int, std::allocator<int>>::_Vector_impl_data" }
%"struct.std::_Vector_base<int, std::allocator<int>>::_Vector_impl_data" = type { ptr, ptr, ptr }
%"class.std::vector.3" = type { %"struct.std::_Vector_base.4" }
%"struct.std::_Vector_base.4" = type { %"struct.std::_Vector_base<unsigned long, std::allocator<unsigned long>>::_Vector_impl" }
%"struct.std::_Vector_base<unsigned long, std::allocator<unsigned long>>::_Vector_impl" = type { %"struct.std::_Vector_base<unsigned long, std::allocator<unsigned long>>::_Vector_impl_data" }
%"struct.std::_Vector_base<unsigned long, std::allocator<unsigned long>>::_Vector_impl_data" = type { ptr, ptr, ptr }
%"class.std::vector.8" = type { %"struct.std::_Vector_base.9" }
%"struct.std::_Vector_base.9" = type { %"struct.std::_Vector_base<double, std::allocator<double>>::_Vector_impl" }
%"struct.std::_Vector_base<double, std::allocator<double>>::_Vector_impl" = type { %"struct.std::_Vector_base<double, std::allocator<double>>::_Vector_impl_data" }
%"struct.std::_Vector_base<double, std::allocator<double>>::_Vector_impl_data" = type { ptr, ptr, ptr }
%"class.std::vector.13" = type { %"struct.std::_Vector_base.14" }
%"struct.std::_Vector_base.14" = type { %"struct.std::_Vector_base<colvarmodule::rvector, std::allocator<colvarmodule::rvector>>::_Vector_impl" }
%"struct.std::_Vector_base<colvarmodule::rvector, std::allocator<colvarmodule::rvector>>::_Vector_impl" = type { %"struct.std::_Vector_base<colvarmodule::rvector, std::allocator<colvarmodule::rvector>>::_Vector_impl_data" }
%"struct.std::_Vector_base<colvarmodule::rvector, std::allocator<colvarmodule::rvector>>::_Vector_impl_data" = type { ptr, ptr, ptr }
%class.colvarproxy_atom_groups = type { ptr, %"class.std::vector", %"class.std::vector.3", %"class.std::vector.8", %"class.std::vector.8", %"class.std::vector.13", %"class.std::vector.13", %"class.std::vector.13", double, double }
%class.colvarproxy_volmaps = type { ptr, %"class.std::vector", %"class.std::vector.3", %"class.std::vector.8", %"class.std::vector.8", double, double }
%class.colvarproxy_smp = type { ptr, i8, ptr }
%class.colvarproxy_replicas = type { ptr }
%class.colvarproxy_script.base = type <{ ptr, ptr, i8 }>
%class.colvarproxy_tcl = type { ptr, ptr }
%class.colvarproxy_io = type { ptr, %"class.std::__cxx11::basic_string", %"class.std::__cxx11::basic_string", %"class.std::__cxx11::basic_string", i32, %"class.std::map", ptr, %"class.std::map.21", ptr }
%"class.std::map" = type { %"class.std::_Rb_tree" }
%"class.std::_Rb_tree" = type { %"struct.std::_Rb_tree<std::__cxx11::basic_string<char>, std::pair<const std::__cxx11::basic_string<char>, std::basic_istream<char> *>, std::_Select1st<std::pair<const std::__cxx11::basic_string<char>, std::basic_istream<char> *>>, std::less<std::__cxx11::basic_string<char>>>::_Rb_tree_impl" }
%"struct.std::_Rb_tree<std::__cxx11::basic_string<char>, std::pair<const std::__cxx11::basic_string<char>, std::basic_istream<char> *>, std::_Select1st<std::pair<const std::__cxx11::basic_string<char>, std::basic_istream<char> *>>, std::less<std::__cxx11::basic_string<char>>>::_Rb_tree_impl" = type { %"struct.std::_Rb_tree_key_compare", %"struct.std::_Rb_tree_header" }
%"struct.std::_Rb_tree_key_compare" = type { %"struct.std::less" }
%"struct.std::less" = type { i8 }
%"struct.std::_Rb_tree_header" = type { %"struct.std::_Rb_tree_node_base", i64 }
%"struct.std::_Rb_tree_node_base" = type { i32, ptr, ptr, ptr }
%"class.std::map.21" = type { %"class.std::_Rb_tree.22" }
%"class.std::_Rb_tree.22" = type { %"struct.std::_Rb_tree<std::__cxx11::basic_string<char>, std::pair<const std::__cxx11::basic_string<char>, std::basic_ostream<char> *>, std::_Select1st<std::pair<const std::__cxx11::basic_string<char>, std::basic_ostream<char> *>>, std::less<std::__cxx11::basic_string<char>>>::_Rb_tree_impl" }
%"struct.std::_Rb_tree<std::__cxx11::basic_string<char>, std::pair<const std::__cxx11::basic_string<char>, std::basic_ostream<char> *>, std::_Select1st<std::pair<const std::__cxx11::basic_string<char>, std::basic_ostream<char> *>>, std::less<std::__cxx11::basic_string<char>>>::_Rb_tree_impl" = type { %"struct.std::_Rb_tree_key_compare", %"struct.std::_Rb_tree_header" }

; Function Attrs: mustprogress nounwind uwtable
define void @_ZN3gmx18ColvarProxyGromacsD2Ev(ptr noundef nonnull align 8 dereferenceable(1728) %0) unnamed_addr #0 align 2 {
  %2 = alloca ptr, align 8
  store ptr %0, ptr %2, align 8
  %3 = load ptr, ptr %2, align 8
  store ptr getelementptr inbounds inrange(-16, 240) ({ [32 x ptr], [12 x ptr], [7 x ptr], [12 x ptr], [13 x ptr], [10 x ptr], [7 x ptr], [5 x ptr], [20 x ptr] }, ptr @_ZTVN3gmx18ColvarProxyGromacsE, i32 0, i32 0, i32 2), ptr %3, align 8
  %4 = getelementptr inbounds i8, ptr %3, i64 256
  store ptr getelementptr inbounds inrange(-16, 80) ({ [32 x ptr], [12 x ptr], [7 x ptr], [12 x ptr], [13 x ptr], [10 x ptr], [7 x ptr], [5 x ptr], [20 x ptr] }, ptr @_ZTVN3gmx18ColvarProxyGromacsE, i32 0, i32 1, i32 2), ptr %4, align 8
  %5 = getelementptr inbounds i8, ptr %3, i64 456
  store ptr getelementptr inbounds inrange(-16, 40) ({ [32 x ptr], [12 x ptr], [7 x ptr], [12 x ptr], [13 x ptr], [10 x ptr], [7 x ptr], [5 x ptr], [20 x ptr] }, ptr @_ZTVN3gmx18ColvarProxyGromacsE, i32 0, i32 2, i32 2), ptr %5, align 8
  %6 = getelementptr inbounds i8, ptr %3, i64 648
  store ptr getelementptr inbounds inrange(-16, 80) ({ [32 x ptr], [12 x ptr], [7 x ptr], [12 x ptr], [13 x ptr], [10 x ptr], [7 x ptr], [5 x ptr], [20 x ptr] }, ptr @_ZTVN3gmx18ColvarProxyGromacsE, i32 0, i32 3, i32 2), ptr %6, align 8
  %7 = getelementptr inbounds i8, ptr %3, i64 768
  store ptr getelementptr inbounds inrange(-16, 88) ({ [32 x ptr], [12 x ptr], [7 x ptr], [12 x ptr], [13 x ptr], [10 x ptr], [7 x ptr], [5 x ptr], [20 x ptr] }, ptr @_ZTVN3gmx18ColvarProxyGromacsE, i32 0, i32 4, i32 2), ptr %7, align 8
  %8 = getelementptr inbounds i8, ptr %3, i64 792
  store ptr getelementptr inbounds inrange(-16, 64) ({ [32 x ptr], [12 x ptr], [7 x ptr], [12 x ptr], [13 x ptr], [10 x ptr], [7 x ptr], [5 x ptr], [20 x ptr] }, ptr @_ZTVN3gmx18ColvarProxyGromacsE, i32 0, i32 5, i32 2), ptr %8, align 8
  %9 = getelementptr inbounds i8, ptr %3, i64 800
  store ptr getelementptr inbounds inrange(-16, 40) ({ [32 x ptr], [12 x ptr], [7 x ptr], [12 x ptr], [13 x ptr], [10 x ptr], [7 x ptr], [5 x ptr], [20 x ptr] }, ptr @_ZTVN3gmx18ColvarProxyGromacsE, i32 0, i32 6, i32 2), ptr %9, align 8
  %10 = getelementptr inbounds i8, ptr %3, i64 824
  store ptr getelementptr inbounds inrange(-16, 24) ({ [32 x ptr], [12 x ptr], [7 x ptr], [12 x ptr], [13 x ptr], [10 x ptr], [7 x ptr], [5 x ptr], [20 x ptr] }, ptr @_ZTVN3gmx18ColvarProxyGromacsE, i32 0, i32 7, i32 2), ptr %10, align 8
  %11 = getelementptr inbounds i8, ptr %3, i64 840
  store ptr getelementptr inbounds inrange(-16, 144) ({ [32 x ptr], [12 x ptr], [7 x ptr], [12 x ptr], [13 x ptr], [10 x ptr], [7 x ptr], [5 x ptr], [20 x ptr] }, ptr @_ZTVN3gmx18ColvarProxyGromacsE, i32 0, i32 8, i32 2), ptr %11, align 8
  %12 = getelementptr inbounds %class.colvarproxy, ptr %3, i32 0, i32 9
  %13 = load ptr, ptr %12, align 8
  %14 = icmp ne ptr %13, null
  br i1 %14, label %15, label %22

15:                                               ; preds = %1
  %16 = getelementptr inbounds %class.colvarproxy, ptr %3, i32 0, i32 9
  %17 = load ptr, ptr %16, align 8
  %18 = icmp eq ptr %17, null
  br i1 %18, label %20, label %19

19:                                               ; preds = %15
  call void @_ZN12colvarmoduleD1Ev(ptr noundef nonnull align 8 dereferenceable(616) %17) #14
  call void @_ZdlPv(ptr noundef %17) #15
  br label %20

20:                                               ; preds = %19, %15
  %21 = getelementptr inbounds %class.colvarproxy, ptr %3, i32 0, i32 9
  store ptr null, ptr %21, align 8
  br label %22

22:                                               ; preds = %20, %1
  call void @_ZN11colvarproxyD2Ev(ptr noundef nonnull align 8 dereferenceable(1168) %3) #14
  ret void
}