; Function Attrs: mustprogress nounwind uwtable
define void @_ZN3gmx18ColvarProxyGromacsD2Ev(ptr noundef nonnull align 8 dereferenceable(1728) %0) unnamed_addr #0 align 2 {
  store ptr getelementptr inbounds inrange(-16, 240) ({ [32 x ptr], [12 x ptr], [7 x ptr], [12 x ptr], [13 x ptr], [10 x ptr], [7 x ptr], [5 x ptr], [20 x ptr] }, ptr @_ZTVN3gmx18ColvarProxyGromacsE, i64 0, i32 0, i64 2), ptr %0, align 8
  %2 = getelementptr inbounds i8, ptr %0, i64 256
  store ptr getelementptr inbounds inrange(-16, 80) ({ [32 x ptr], [12 x ptr], [7 x ptr], [12 x ptr], [13 x ptr], [10 x ptr], [7 x ptr], [5 x ptr], [20 x ptr] }, ptr @_ZTVN3gmx18ColvarProxyGromacsE, i64 0, i32 1, i64 2), ptr %2, align 8
  %3 = getelementptr inbounds i8, ptr %0, i64 456
  store ptr getelementptr inbounds inrange(-16, 40) ({ [32 x ptr], [12 x ptr], [7 x ptr], [12 x ptr], [13 x ptr], [10 x ptr], [7 x ptr], [5 x ptr], [20 x ptr] }, ptr @_ZTVN3gmx18ColvarProxyGromacsE, i64 0, i32 2, i64 2), ptr %3, align 8
  %4 = getelementptr inbounds i8, ptr %0, i64 648
  store ptr getelementptr inbounds inrange(-16, 80) ({ [32 x ptr], [12 x ptr], [7 x ptr], [12 x ptr], [13 x ptr], [10 x ptr], [7 x ptr], [5 x ptr], [20 x ptr] }, ptr @_ZTVN3gmx18ColvarProxyGromacsE, i64 0, i32 3, i64 2), ptr %4, align 8
  %5 = getelementptr inbounds i8, ptr %0, i64 768
  store ptr getelementptr inbounds inrange(-16, 88) ({ [32 x ptr], [12 x ptr], [7 x ptr], [12 x ptr], [13 x ptr], [10 x ptr], [7 x ptr], [5 x ptr], [20 x ptr] }, ptr @_ZTVN3gmx18ColvarProxyGromacsE, i64 0, i32 4, i64 2), ptr %5, align 8
  %6 = getelementptr inbounds i8, ptr %0, i64 792
  store ptr getelementptr inbounds inrange(-16, 64) ({ [32 x ptr], [12 x ptr], [7 x ptr], [12 x ptr], [13 x ptr], [10 x ptr], [7 x ptr], [5 x ptr], [20 x ptr] }, ptr @_ZTVN3gmx18ColvarProxyGromacsE, i64 0, i32 5, i64 2), ptr %6, align 8
  %7 = getelementptr inbounds i8, ptr %0, i64 800
  store ptr getelementptr inbounds inrange(-16, 40) ({ [32 x ptr], [12 x ptr], [7 x ptr], [12 x ptr], [13 x ptr], [10 x ptr], [7 x ptr], [5 x ptr], [20 x ptr] }, ptr @_ZTVN3gmx18ColvarProxyGromacsE, i64 0, i32 6, i64 2), ptr %7, align 8
  %8 = getelementptr inbounds i8, ptr %0, i64 824
  store ptr getelementptr inbounds inrange(-16, 24) ({ [32 x ptr], [12 x ptr], [7 x ptr], [12 x ptr], [13 x ptr], [10 x ptr], [7 x ptr], [5 x ptr], [20 x ptr] }, ptr @_ZTVN3gmx18ColvarProxyGromacsE, i64 0, i32 7, i64 2), ptr %8, align 8
  %9 = getelementptr inbounds i8, ptr %0, i64 840
  store ptr getelementptr inbounds inrange(-16, 144) ({ [32 x ptr], [12 x ptr], [7 x ptr], [12 x ptr], [13 x ptr], [10 x ptr], [7 x ptr], [5 x ptr], [20 x ptr] }, ptr @_ZTVN3gmx18ColvarProxyGromacsE, i64 0, i32 8, i64 2), ptr %9, align 8
  %10 = getelementptr inbounds i8, ptr %0, i64 1064
  %11 = load ptr, ptr %10, align 8
  %.not = icmp eq ptr %11, null
  br i1 %.not, label %13, label %12

12:                                               ; preds = %1
  tail call void @_ZN12colvarmoduleD1Ev(ptr noundef nonnull align 8 dereferenceable(616) %11) #19
  tail call void @_ZdlPv(ptr noundef nonnull %11) #20
  store ptr null, ptr %10, align 8
  br label %13

13:                                               ; preds = %12, %1
  tail call void @_ZN11colvarproxyD2Ev(ptr noundef nonnull align 8 dereferenceable(1168) %0) #19
  ret void
}